target datalayout = "e-m:e-p270:32:32-p271:32:32-p272:64:64-i64:64-i128:128-f80:128-n8:16:32:64-S128"
target triple = "x86_64-pc-linux-gnu"

%struct.PGShmemHeader = type { i32, i32, i64, i64, i32, ptr, i64, i64 }

@ShmemSegHdr = internal global ptr null, align 8
@ShmemBase = internal global ptr null, align 8
@ShmemLock = dso_local global ptr null, align 8
@ShmemIndex = internal global ptr null, align 8
@.str = private unnamed_addr constant [43 x i8] c"out of shared memory (%zu bytes requested)\00", align 1
@.str.1 = private unnamed_addr constant [8 x i8] c"shmem.c\00", align 1
@__func__.ShmemAllocUnlocked = private unnamed_addr constant [19 x i8] c"ShmemAllocUnlocked\00", align 1

; Function Attrs: nounwind uwtable
define dso_local ptr @ShmemAllocUnlocked(i64 noundef %0) #0 {
  %2 = alloca i64, align 8
  %3 = alloca i64, align 8
  %4 = alloca i64, align 8
  %5 = alloca ptr, align 8
  store i64 %0, ptr %2, align 8
  call void @llvm.lifetime.start.p0(i64 8, ptr %3) #6
  call void @llvm.lifetime.start.p0(i64 8, ptr %4) #6
  call void @llvm.lifetime.start.p0(i64 8, ptr %5) #6
  %6 = load i64, ptr %2, align 8
  %7 = add i64 %6, 7
  %8 = and i64 %7, -8
  store i64 %8, ptr %2, align 8
  %9 = load ptr, ptr @ShmemSegHdr, align 8
  %10 = getelementptr inbounds nuw %struct.PGShmemHeader, ptr %9, i32 0, i32 3
  %11 = load i64, ptr %10, align 8
  store i64 %11, ptr %3, align 8
  %12 = load i64, ptr %3, align 8
  %13 = load i64, ptr %2, align 8
  %14 = add i64 %12, %13
  store i64 %14, ptr %4, align 8
  %15 = load i64, ptr %4, align 8
  %16 = load ptr, ptr @ShmemSegHdr, align 8
  %17 = getelementptr inbounds nuw %struct.PGShmemHeader, ptr %16, i32 0, i32 2
  %18 = load i64, ptr %17, align 8
  %19 = icmp ugt i64 %15, %18
  br i1 %19, label %20, label %33

20:                                               ; preds = %1
  br label %21

21:                                               ; preds = %20
  br i1 true, label %22, label %24

22:                                               ; preds = %21
  %23 = call zeroext i1 @errstart_cold(i32 noundef 21, ptr noundef null) #7
  br i1 %23, label %26, label %30

24:                                               ; preds = %21
  %25 = call zeroext i1 @errstart(i32 noundef 21, ptr noundef null)
  br i1 %25, label %26, label %30

26:                                               ; preds = %24, %22
  %27 = call i32 @errcode(i32 noundef 8389)
  %28 = load i64, ptr %2, align 8
  %29 = call i32 (ptr, ...) @errmsg(ptr noundef @.str, i64 noundef %28)
  call void @errfinish(ptr noundef @.str.1, i32 noundef 253, ptr noundef @__func__.ShmemAllocUnlocked)
  br label %30

30:                                               ; preds = %26, %24, %22
  unreachable

31:                                               ; No predecessors!
  br label %32

32:                                               ; preds = %31
  br label %33

33:                                               ; preds = %32, %1
  %34 = load i64, ptr %4, align 8
  %35 = load ptr, ptr @ShmemSegHdr, align 8
  %36 = getelementptr inbounds nuw %struct.PGShmemHeader, ptr %35, i32 0, i32 3
  store i64 %34, ptr %36, align 8
  %37 = load ptr, ptr @ShmemBase, align 8
  %38 = load i64, ptr %3, align 8
  %39 = getelementptr inbounds nuw i8, ptr %37, i64 %38
  store ptr %39, ptr %5, align 8
  %40 = load ptr, ptr %5, align 8
  call void @llvm.lifetime.end.p0(i64 8, ptr %5) #6
  call void @llvm.lifetime.end.p0(i64 8, ptr %4) #6
  call void @llvm.lifetime.end.p0(i64 8, ptr %3) #6
  ret ptr %40
}

; Function Attrs: nounwind uwtable
define dso_local void @InitShmemAllocation() #0 {
  %1 = alloca ptr, align 8
  %2 = alloca ptr, align 8
  call void @llvm.lifetime.start.p0(i64 8, ptr %1) #6
  %3 = load ptr, ptr @ShmemSegHdr, align 8
  store ptr %3, ptr %1, align 8
  call void @llvm.lifetime.start.p0(i64 8, ptr %2) #6
  %4 = call ptr @ShmemAllocUnlocked(i64 noundef 1)
  store ptr %4, ptr @ShmemLock, align 8
  br label %5

5:                                                ; preds = %0
  call void asm sideeffect "", "~{memory},~{dirflag},~{fpsr},~{flags}"() #6, !srcloc !4
  %6 = load ptr, ptr @ShmemLock, align 8
  store i8 0, ptr %6, align 1
  br label %7

7:                                                ; preds = %5
  br label %8

8:                                                ; preds = %7
  %9 = load ptr, ptr %1, align 8
  %10 = load ptr, ptr %1, align 8
  %11 = getelementptr inbounds nuw %struct.PGShmemHeader, ptr %10, i32 0, i32 3
  %12 = load i64, ptr %11, align 8
  %13 = getelementptr inbounds nuw i8, ptr %9, i64 %12
  %14 = ptrtoint ptr %13 to i64
  %15 = add i64 %14, 127
  %16 = and i64 %15, -128
  %17 = inttoptr i64 %16 to ptr
  store ptr %17, ptr %2, align 8
  %18 = load ptr, ptr %2, align 8
  %19 = load ptr, ptr %1, align 8
  %20 = ptrtoint ptr %18 to i64
  %21 = ptrtoint ptr %19 to i64
  %22 = sub i64 %20, %21
  %23 = load ptr, ptr %1, align 8
  %24 = getelementptr inbounds nuw %struct.PGShmemHeader, ptr %23, i32 0, i32 3
  store i64 %22, ptr %24, align 8
  %25 = load ptr, ptr %1, align 8
  %26 = getelementptr inbounds nuw %struct.PGShmemHeader, ptr %25, i32 0, i32 5
  store ptr null, ptr %26, align 8
  store ptr null, ptr @ShmemIndex, align 8
  call void @llvm.lifetime.end.p0(i64 8, ptr %2) #6
  call void @llvm.lifetime.end.p0(i64 8, ptr %1) #6
  ret void
}