; Function Attrs: nounwind uwtable
define dso_local void @InitShmemAllocation() local_unnamed_addr #1 {
  %1 = load ptr, ptr @ShmemSegHdr, align 8
  %2 = getelementptr inbounds nuw i8, ptr %1, i64 16
  %3 = load i64, ptr %2, align 8
  %4 = add i64 %3, 8
  %5 = getelementptr inbounds nuw i8, ptr %1, i64 8
  %6 = load i64, ptr %5, align 8
  %7 = icmp ugt i64 %4, %6
  br i1 %7, label %8, label %ShmemAllocUnlocked.exit

8:                                                ; preds = %0
  %9 = tail call zeroext i1 @errstart_cold(i32 noundef 21, ptr noundef null) #8
  tail call void @llvm.assume(i1 %9)
  %10 = tail call i32 @errcode(i32 noundef 8389) #9
  %11 = tail call i32 (ptr, ...) @errmsg(ptr noundef nonnull @.str, i64 noundef 8) #9
  tail call void @errfinish(ptr noundef nonnull @.str.1, i32 noundef 253, ptr noundef nonnull @__func__.ShmemAllocUnlocked) #9
  unreachable

ShmemAllocUnlocked.exit:                          ; preds = %0
  store i64 %4, ptr %2, align 8
  %12 = load ptr, ptr @ShmemBase, align 8
  %13 = getelementptr inbounds nuw i8, ptr %12, i64 %3
  store ptr %13, ptr @ShmemLock, align 8
  tail call void asm sideeffect "", "~{memory},~{dirflag},~{fpsr},~{flags}"() #9, !srcloc !4
  %14 = load ptr, ptr @ShmemLock, align 8
  store i8 0, ptr %14, align 1
  %15 = load i64, ptr %2, align 8
  %16 = getelementptr inbounds nuw i8, ptr %1, i64 %15
  %17 = ptrtoint ptr %16 to i64
  %18 = add i64 %17, 127
  %19 = and i64 %18, -128
  %20 = ptrtoint ptr %1 to i64
  %21 = sub i64 %19, %20
  store i64 %21, ptr %2, align 8
  %22 = getelementptr inbounds nuw i8, ptr %1, i64 32
  store ptr null, ptr %22, align 8
  store ptr null, ptr @ShmemIndex, align 8
  ret void
}